; Function Attrs: mustprogress nounwind uwtable
define internal void @_ZN7testing8internal30ValuesInIteratorRangeGeneratorIN12_GLOBAL__N_19TestParamEE8Iterator7AdvanceEv(ptr nocapture noundef nonnull align 8 dereferenceable(32) %this) unnamed_addr #4 align 2 {
entry:
  %iterator_ = getelementptr inbounds i8, ptr %this, i64 16
  %0 = load ptr, ptr %iterator_, align 8
  %incdec.ptr.i = getelementptr inbounds i8, ptr %0, i64 16
  store ptr %incdec.ptr.i, ptr %iterator_, align 8
  %value_ = getelementptr inbounds i8, ptr %this, i64 24
  %1 = load ptr, ptr %value_, align 8
  store ptr null, ptr %value_, align 8
  %tobool.not.i.i = icmp eq ptr %1, null
  br i1 %tobool.not.i.i, label %_ZNSt10unique_ptrIKN12_GLOBAL__N_19TestParamESt14default_deleteIS2_EE5resetEPS2_.exit, label %_ZNKSt14default_deleteIKN12_GLOBAL__N_19TestParamEEclEPS2_.exit.i.i

_ZNKSt14default_deleteIKN12_GLOBAL__N_19TestParamEEclEPS2_.exit.i.i: ; preds = %entry
  tail call void @_ZdlPv(ptr noundef nonnull %1) #30
  br label %_ZNSt10unique_ptrIKN12_GLOBAL__N_19TestParamESt14default_deleteIS2_EE5resetEPS2_.exit

_ZNSt10unique_ptrIKN12_GLOBAL__N_19TestParamESt14default_deleteIS2_EE5resetEPS2_.exit: ; preds = %entry, %_ZNKSt14default_deleteIKN12_GLOBAL__N_19TestParamEEclEPS2_.exit.i.i
  ret void
}